target datalayout = "e-m:e-p270:32:32-p271:32:32-p272:64:64-i64:64-i128:128-f80:128-n8:16:32:64-S128"
target triple = "x86_64-unknown-linux-gnu"

%struct.anon.33 = type { i32, i32 }
%struct.snd_ctl_elem_id = type { i32, i32, i32, i32, [44 x i8], i32 }
%struct.snd_kcontrol_volatile = type { ptr, i32 }
%struct.snd_ctl_tlv = type { i32, i32, [0 x i32] }

@call_tlv_handler.pairs = internal unnamed_addr constant [3 x %struct.anon.33] [%struct.anon.33 { i32 0, i32 16 }, %struct.anon.33 { i32 1, i32 32 }, %struct.anon.33 { i32 -1, i32 64 }], align 16

; Function Attrs: fn_ret_thunk_extern nounwind null_pointer_is_valid
define internal fastcc i32 @snd_ctl_tlv_ioctl(ptr noundef readonly %0, ptr noundef %1, i32 noundef %2) unnamed_addr #0 align 16 {
  %4 = alloca %struct.snd_ctl_tlv, align 8
  %5 = alloca %struct.snd_ctl_elem_id, align 4
  call void @llvm.lifetime.start.p0(i64 8, ptr nonnull %4) #17
  store i64 0, ptr %4, align 8, !annotation !40
  call void @llvm.lifetime.start.p0(i64 64, ptr nonnull %5) #17
  call void @llvm.memset.p0.i64(ptr noundef nonnull align 4 dereferenceable(64) %5, i8 0, i64 64, i1 false), !annotation !40
  %6 = getelementptr inbounds i8, ptr %0, i64 16
  %7 = call i64 @_copy_from_user(ptr noundef nonnull %4, ptr noundef %1, i64 noundef 8) #17
  %8 = icmp eq i64 %7, 0
  br i1 %8, label %9, label %141

9:                                                ; preds = %3
  %10 = load i32, ptr %4, align 8
  %11 = icmp eq i32 %10, 0
  br i1 %11, label %141, label %12

12:                                               ; preds = %9
  %13 = getelementptr inbounds i8, ptr %4, i64 4
  %14 = load i32, ptr %13, align 4
  %15 = icmp ult i32 %14, 8
  br i1 %15, label %141, label %16

16:                                               ; preds = %12
  %17 = getelementptr inbounds i8, ptr %1, i64 8
  %18 = load ptr, ptr %6, align 8
  %19 = icmp eq ptr %18, null
  br i1 %19, label %24, label %20

20:                                               ; preds = %16
  %21 = getelementptr inbounds i8, ptr %18, i64 544
  %22 = zext i32 %10 to i64
  %23 = call ptr @xa_load(ptr noundef %21, i64 noundef %22) #17
  br label %24

24:                                               ; preds = %20, %16
  %25 = phi ptr [ %23, %20 ], [ null, %16 ]
  %26 = icmp eq ptr %25, null
  br i1 %26, label %141, label %27

27:                                               ; preds = %24
  %28 = getelementptr inbounds i8, ptr %25, i64 16
  call void @llvm.memcpy.p0.p0.i64(ptr noundef nonnull align 4 dereferenceable(64) %5, ptr noundef align 8 dereferenceable(64) %28, i64 64, i1 false)
  %29 = load i32, ptr %4, align 8
  %30 = load i32, ptr %5, align 4
  %31 = sub i32 %29, %30
  call void @llvm.memcpy.p0.p0.i64(ptr noundef nonnull align 4 dereferenceable(64) %5, ptr noundef align 8 dereferenceable(64) %28, i64 64, i1 false)
  %32 = getelementptr inbounds i8, ptr %5, i64 60
  %33 = load i32, ptr %32, align 4
  %34 = add i32 %33, %31
  store i32 %34, ptr %32, align 4
  %35 = load i32, ptr %5, align 4
  %36 = add i32 %35, %31
  store i32 %36, ptr %5, align 4
  %37 = getelementptr inbounds i8, ptr %25, i64 144
  %38 = icmp eq i32 %36, 0
  br i1 %38, label %47, label %39

39:                                               ; preds = %27
  %40 = load i32, ptr %28, align 8
  %41 = sub i32 %36, %40
  %42 = getelementptr inbounds i8, ptr %25, i64 80
  %43 = load i32, ptr %42, align 8
  %44 = zext i32 %41 to i64
  %45 = zext i32 %43 to i64
  %46 = call i64 asm sideeffect "cmp $1,$2; sbb $0,$0;", "=r,imr,r,~{cc},~{dirflag},~{fpsr},~{flags}"(i64 %45, i64 %44) #17, !srcloc !17
  br label %56

47:                                               ; preds = %27
  %48 = getelementptr inbounds i8, ptr %25, i64 76
  %49 = load i32, ptr %48, align 4
  %50 = sub i32 %34, %49
  %51 = getelementptr inbounds i8, ptr %25, i64 80
  %52 = load i32, ptr %51, align 8
  %53 = zext i32 %50 to i64
  %54 = zext i32 %52 to i64
  %55 = call i64 asm sideeffect "cmp $1,$2; sbb $0,$0;", "=r,imr,r,~{cc},~{dirflag},~{fpsr},~{flags}"(i64 %54, i64 %53) #17, !srcloc !17
  br label %56

56:                                               ; preds = %47, %39
  %57 = phi i64 [ %46, %39 ], [ %55, %47 ]
  %58 = phi i32 [ %41, %39 ], [ %50, %47 ]
  %59 = trunc i64 %57 to i32
  %60 = and i32 %58, %59
  %61 = zext i32 %60 to i64
  %62 = getelementptr [0 x %struct.snd_kcontrol_volatile], ptr %37, i64 0, i64 %61, i32 1
  %63 = load i32, ptr %62, align 8
  %64 = and i32 %63, 268435456
  %65 = icmp eq i32 %64, 0
  br i1 %65, label %137, label %66

66:                                               ; preds = %56
  br i1 %38, label %75, label %67

67:                                               ; preds = %66
  %68 = load i32, ptr %28, align 8
  %69 = sub i32 %36, %68
  %70 = getelementptr inbounds i8, ptr %25, i64 80
  %71 = load i32, ptr %70, align 8
  %72 = zext i32 %69 to i64
  %73 = zext i32 %71 to i64
  %74 = call i64 asm sideeffect "cmp $1,$2; sbb $0,$0;", "=r,imr,r,~{cc},~{dirflag},~{fpsr},~{flags}"(i64 %73, i64 %72) #17, !srcloc !17
  br label %84

75:                                               ; preds = %66
  %76 = getelementptr inbounds i8, ptr %25, i64 76
  %77 = load i32, ptr %76, align 4
  %78 = sub i32 %34, %77
  %79 = getelementptr inbounds i8, ptr %25, i64 80
  %80 = load i32, ptr %79, align 8
  %81 = zext i32 %78 to i64
  %82 = zext i32 %80 to i64
  %83 = call i64 asm sideeffect "cmp $1,$2; sbb $0,$0;", "=r,imr,r,~{cc},~{dirflag},~{fpsr},~{flags}"(i64 %82, i64 %81) #17, !srcloc !17
  br label %84

84:                                               ; preds = %75, %67
  %85 = phi i64 [ %83, %75 ], [ %74, %67 ]
  %86 = phi i32 [ %78, %75 ], [ %69, %67 ]
  %87 = trunc i64 %85 to i32
  %88 = and i32 %86, %87
  %89 = zext i32 %88 to i64
  %90 = getelementptr [0 x %struct.snd_kcontrol_volatile], ptr %37, i64 0, i64 %89
  %91 = getelementptr inbounds i8, ptr %90, i64 8
  br label %92

92:                                               ; preds = %103, %84
  %93 = phi i64 [ 0, %84 ], [ %104, %103 ]
  %94 = getelementptr [3 x %struct.anon.33], ptr @call_tlv_handler.pairs, i64 0, i64 %93
  %95 = load i32, ptr %94, align 8
  %96 = icmp eq i32 %95, %2
  br i1 %96, label %97, label %103

97:                                               ; preds = %92
  %98 = load i32, ptr %91, align 8
  %99 = getelementptr inbounds i8, ptr %94, i64 4
  %100 = load i32, ptr %99, align 4
  %101 = and i32 %100, %98
  %102 = icmp eq i32 %101, 0
  br i1 %102, label %103, label %106

103:                                              ; preds = %97, %92
  %104 = add nuw nsw i64 %93, 1
  %105 = icmp eq i64 %104, 3
  br i1 %105, label %141, label %92, !llvm.loop !65

106:                                              ; preds = %97
  %107 = and i64 %93, 4294967295
  %108 = icmp eq i64 %107, 3
  br i1 %108, label %141, label %109

109:                                              ; preds = %106
  %110 = getelementptr inbounds i8, ptr %25, i64 112
  %111 = load ptr, ptr %110, align 8
  %112 = icmp eq ptr %111, null
  br i1 %112, label %141, label %113

113:                                              ; preds = %109
  %114 = icmp eq i32 %2, 0
  br i1 %114, label %120, label %115

115:                                              ; preds = %113
  %116 = load ptr, ptr %90, align 8
  %117 = icmp eq ptr %116, null
  %118 = icmp eq ptr %116, %0
  %119 = or i1 %117, %118
  br i1 %119, label %120, label %141

120:                                              ; preds = %115, %113
  %121 = load ptr, ptr %6, align 8
  %122 = call i32 @snd_power_ref_and_wait(ptr noundef %121) #17
  %123 = icmp eq i32 %122, 0
  br i1 %123, label %124, label %127

124:                                              ; preds = %120
  %125 = load ptr, ptr %110, align 8
  %126 = call i32 %125(ptr noundef nonnull %25, i32 noundef %2, i32 noundef %14, ptr noundef %17) #17
  br label %127

127:                                              ; preds = %124, %120
  %128 = phi i32 [ %122, %120 ], [ %126, %124 ]
  %129 = load ptr, ptr %6, align 8
  %130 = getelementptr inbounds i8, ptr %129, i64 1484
  %131 = call i8 asm sideeffect ".pushsection .smp_locks,\22a\22\0A.balign 4\0A.long 671f - .\0A.popsection\0A671:\0A\09lock; decl $0\0A\09/* output condition code e*/\0A", "=*m,={@cce},*m,~{memory},~{dirflag},~{fpsr},~{flags}"(ptr elementtype(i32) %130, ptr elementtype(i32) %130) #17, !srcloc !66
  %132 = icmp ult i8 %131, 2
  call void @llvm.assume(i1 %132)
  %133 = icmp eq i8 %131, 0
  br i1 %133, label %141, label %134

134:                                              ; preds = %127
  %135 = getelementptr inbounds i8, ptr %129, i64 1512
  %136 = call i32 @__wake_up(ptr noundef %135, i32 noundef 3, i32 noundef 1, ptr noundef null) #17
  br label %141

137:                                              ; preds = %56
  %138 = icmp eq i32 %2, 0
  br i1 %138, label %139, label %141

139:                                              ; preds = %137
  %140 = call fastcc i32 @read_tlv_buf(ptr noundef nonnull %25, ptr noundef nonnull %5, ptr noundef %17, i32 noundef %14), !range !46
  br label %141

141:                                              ; preds = %139, %137, %134, %127, %115, %109, %106, %103, %24, %12, %9, %3
  %142 = phi i32 [ %140, %139 ], [ -14, %3 ], [ -22, %9 ], [ -22, %12 ], [ -2, %24 ], [ -6, %137 ], [ -6, %106 ], [ -6, %109 ], [ -1, %115 ], [ %128, %127 ], [ %128, %134 ], [ -6, %103 ]
  call void @llvm.lifetime.end.p0(i64 64, ptr nonnull %5) #17
  call void @llvm.lifetime.end.p0(i64 8, ptr nonnull %4) #17
  ret i32 %142
}