; Function Attrs: fn_ret_thunk_extern nounwind null_pointer_is_valid
define internal fastcc i32 @snd_ctl_tlv_ioctl(ptr noundef readonly %0, ptr noundef %1, i32 noundef %2) unnamed_addr #0 align 16 {
  %4 = alloca %struct.snd_ctl_tlv, align 8
  call void @llvm.lifetime.start.p0(i64 8, ptr nonnull %4) #17
  store i64 0, ptr %4, align 8, !annotation !40
  %5 = getelementptr inbounds i8, ptr %0, i64 16
  %6 = call i64 @_copy_from_user(ptr noundef nonnull %4, ptr noundef %1, i64 noundef 8) #17
  %7 = icmp eq i64 %6, 0
  br i1 %7, label %8, label %.thread

8:                                                ; preds = %3
  %9 = load i32, ptr %4, align 8
  %10 = icmp eq i32 %9, 0
  br i1 %10, label %.thread, label %11

11:                                               ; preds = %8
  %12 = getelementptr inbounds i8, ptr %4, i64 4
  %13 = load i32, ptr %12, align 4
  %14 = icmp ult i32 %13, 8
  br i1 %14, label %.thread, label %15

15:                                               ; preds = %11
  %16 = getelementptr inbounds i8, ptr %1, i64 8
  %17 = load ptr, ptr %5, align 8
  %18 = icmp eq ptr %17, null
  br i1 %18, label %.thread, label %19

19:                                               ; preds = %15
  %20 = getelementptr inbounds i8, ptr %17, i64 544
  %21 = zext i32 %9 to i64
  %22 = call ptr @xa_load(ptr noundef %20, i64 noundef %21) #17
  %23 = icmp eq ptr %22, null
  br i1 %23, label %.thread, label %24

24:                                               ; preds = %19
  %25 = getelementptr inbounds i8, ptr %22, i64 16
  %.sroa.0.0.copyload = load i32, ptr %25, align 8
  %.sroa.912.0..sroa_idx = getelementptr inbounds i8, ptr %22, i64 76
  %26 = load i32, ptr %4, align 8
  %27 = sub i32 %26, %.sroa.0.0.copyload
  %.sroa.912.0.copyload14 = load i32, ptr %.sroa.912.0..sroa_idx, align 4
  %28 = add i32 %.sroa.912.0.copyload14, %27
  %29 = getelementptr inbounds i8, ptr %22, i64 144
  %30 = icmp eq i32 %26, 0
  %31 = getelementptr inbounds i8, ptr %22, i64 80
  %32 = load i32, ptr %31, align 8
  %33 = zext i32 %27 to i64
  %34 = zext i32 %32 to i64
  %35 = call i64 asm sideeffect "cmp $1,$2; sbb $0,$0;", "=r,imr,r,~{cc},~{dirflag},~{fpsr},~{flags}"(i64 %34, i64 %33) #17
  %36 = trunc i64 %35 to i32
  %37 = and i32 %27, %36
  %38 = zext i32 %37 to i64
  %39 = getelementptr [0 x %struct.snd_kcontrol_volatile], ptr %29, i64 0, i64 %38, i32 1
  %40 = load i32, ptr %39, align 8
  %41 = and i32 %40, 268435456
  %42 = icmp eq i32 %41, 0
  br i1 %30, label %43, label %.thread18

43:                                               ; preds = %24
  br i1 %42, label %107, label %50

.thread18:                                        ; preds = %24
  br i1 %42, label %107, label %.thread19

.thread19:                                        ; preds = %.thread18
  %44 = load i32, ptr %25, align 8
  %45 = sub i32 %26, %44
  %46 = load i32, ptr %31, align 8
  %47 = zext i32 %45 to i64
  %48 = zext i32 %46 to i64
  %49 = call i64 asm sideeffect "cmp $1,$2; sbb $0,$0;", "=r,imr,r,~{cc},~{dirflag},~{fpsr},~{flags}"(i64 %48, i64 %47) #17, !srcloc !17
  br label %57

50:                                               ; preds = %43
  %51 = load i32, ptr %.sroa.912.0..sroa_idx, align 4
  %52 = sub i32 %28, %51
  %53 = load i32, ptr %31, align 8
  %54 = zext i32 %52 to i64
  %55 = zext i32 %53 to i64
  %56 = call i64 asm sideeffect "cmp $1,$2; sbb $0,$0;", "=r,imr,r,~{cc},~{dirflag},~{fpsr},~{flags}"(i64 %55, i64 %54) #17, !srcloc !17
  br label %57

57:                                               ; preds = %50, %.thread19
  %58 = phi i64 [ %56, %50 ], [ %49, %.thread19 ]
  %59 = phi i32 [ %52, %50 ], [ %45, %.thread19 ]
  %60 = trunc i64 %58 to i32
  %61 = and i32 %59, %60
  %62 = zext i32 %61 to i64
  %63 = getelementptr [0 x %struct.snd_kcontrol_volatile], ptr %29, i64 0, i64 %62
  %64 = getelementptr inbounds i8, ptr %63, i64 8
  br label %65

65:                                               ; preds = %76, %57
  %66 = phi i64 [ 0, %57 ], [ %77, %76 ]
  %67 = getelementptr [3 x %struct.anon.33], ptr @call_tlv_handler.pairs, i64 0, i64 %66
  %68 = load i32, ptr %67, align 8
  %69 = icmp eq i32 %68, %2
  br i1 %69, label %70, label %76

70:                                               ; preds = %65
  %71 = load i32, ptr %64, align 8
  %72 = getelementptr inbounds i8, ptr %67, i64 4
  %73 = load i32, ptr %72, align 4
  %74 = and i32 %73, %71
  %75 = icmp eq i32 %74, 0
  br i1 %75, label %76, label %79

76:                                               ; preds = %70, %65
  %77 = add nuw nsw i64 %66, 1
  %78 = icmp eq i64 %77, 3
  br i1 %78, label %.thread, label %65, !llvm.loop !65

79:                                               ; preds = %70
  %80 = getelementptr inbounds i8, ptr %22, i64 112
  %81 = load ptr, ptr %80, align 8
  %82 = icmp eq ptr %81, null
  br i1 %82, label %.thread, label %83

83:                                               ; preds = %79
  %84 = icmp eq i32 %2, 0
  br i1 %84, label %90, label %85

85:                                               ; preds = %83
  %86 = load ptr, ptr %63, align 8
  %87 = icmp eq ptr %86, null
  %88 = icmp eq ptr %86, %0
  %89 = or i1 %87, %88
  br i1 %89, label %90, label %.thread

90:                                               ; preds = %85, %83
  %91 = load ptr, ptr %5, align 8
  %92 = call i32 @snd_power_ref_and_wait(ptr noundef %91) #17
  %93 = icmp eq i32 %92, 0
  br i1 %93, label %94, label %97

94:                                               ; preds = %90
  %95 = load ptr, ptr %80, align 8
  %96 = call i32 %95(ptr noundef nonnull %22, i32 noundef %2, i32 noundef %13, ptr noundef %16) #17
  br label %97

97:                                               ; preds = %94, %90
  %98 = phi i32 [ %92, %90 ], [ %96, %94 ]
  %99 = load ptr, ptr %5, align 8
  %100 = getelementptr inbounds i8, ptr %99, i64 1484
  %101 = call i8 asm sideeffect ".pushsection .smp_locks,\22a\22\0A.balign 4\0A.long 671f - .\0A.popsection\0A671:\0A\09lock; decl $0\0A\09/* output condition code e*/\0A", "=*m,={@cce},*m,~{memory},~{dirflag},~{fpsr},~{flags}"(ptr elementtype(i32) %100, ptr elementtype(i32) %100) #17, !srcloc !66
  %102 = icmp ult i8 %101, 2
  call void @llvm.assume(i1 %102)
  %103 = icmp eq i8 %101, 0
  br i1 %103, label %.thread, label %104

104:                                              ; preds = %97
  %105 = getelementptr inbounds i8, ptr %99, i64 1512
  %106 = call i32 @__wake_up(ptr noundef %105, i32 noundef 3, i32 noundef 1, ptr noundef null) #17
  br label %.thread

107:                                              ; preds = %.thread18, %43
  %108 = icmp eq i32 %2, 0
  br i1 %108, label %109, label %.thread

109:                                              ; preds = %107
  %110 = call fastcc i32 @read_tlv_buf(ptr noundef nonnull %22, i32 %26, i32 %28, ptr noundef %16, i32 noundef %13)
  br label %.thread

.thread:                                          ; preds = %76, %15, %109, %107, %104, %97, %85, %79, %19, %11, %8, %3
  %111 = phi i32 [ %110, %109 ], [ -14, %3 ], [ -22, %8 ], [ -22, %11 ], [ -2, %19 ], [ -6, %107 ], [ -6, %79 ], [ -1, %85 ], [ %98, %97 ], [ %98, %104 ], [ -2, %15 ], [ -6, %76 ]
  call void @llvm.lifetime.end.p0(i64 8, ptr nonnull %4) #17
  ret i32 %111
}